target datalayout = "e-m:e-p270:32:32-p271:32:32-p272:64:64-i64:64-i128:128-f80:128-n8:16:32:64-S128"
target triple = "x86_64-pc-linux-gnu"

%struct.object_id = type { [32 x i8], i32 }
%struct.commit = type { %struct.object, i64, ptr, ptr, i32 }
%struct.object = type { i32, %struct.object_id }

@the_repository = external global ptr, align 8

; Function Attrs: nounwind uwtable
define internal i32 @mark_uninteresting(ptr noundef %0, ptr noundef %1, ptr noundef %2, i32 noundef %3, ptr noundef %4) #0 {
  %6 = alloca i32, align 4
  %7 = alloca ptr, align 8
  %8 = alloca ptr, align 8
  %9 = alloca ptr, align 8
  %10 = alloca i32, align 4
  %11 = alloca ptr, align 8
  %12 = alloca ptr, align 8
  %13 = alloca i32, align 4
  store ptr %0, ptr %7, align 8, !tbaa !9
  store ptr %1, ptr %8, align 8, !tbaa !9
  store ptr %2, ptr %9, align 8, !tbaa !40
  store i32 %3, ptr %10, align 4, !tbaa !11
  store ptr %4, ptr %11, align 8, !tbaa !55
  call void @llvm.lifetime.start.p0(i64 8, ptr %12) #12
  %14 = load ptr, ptr @the_repository, align 8, !tbaa !4
  %15 = load ptr, ptr %9, align 8, !tbaa !40
  %16 = call ptr @lookup_commit_reference_gently(ptr noundef %14, ptr noundef %15, i32 noundef 1)
  store ptr %16, ptr %12, align 8, !tbaa !44
  %17 = load ptr, ptr %12, align 8, !tbaa !44
  %18 = icmp ne ptr %17, null
  br i1 %18, label %20, label %19

19:                                               ; preds = %5
  store i32 0, ptr %6, align 4
  store i32 1, ptr %13, align 4
  br label %32

20:                                               ; preds = %5
  %21 = load ptr, ptr %12, align 8, !tbaa !44
  %22 = getelementptr inbounds nuw %struct.commit, ptr %21, i32 0, i32 0
  %23 = load i32, ptr %22, align 8
  %24 = lshr i32 %23, 4
  %25 = or i32 %24, 2
  %26 = load i32, ptr %22, align 8
  %27 = and i32 %25, 268435455
  %28 = shl i32 %27, 4
  %29 = and i32 %26, 15
  %30 = or i32 %29, %28
  store i32 %30, ptr %22, align 8
  %31 = load ptr, ptr %12, align 8, !tbaa !44
  call void @mark_parents_uninteresting(ptr noundef null, ptr noundef %31)
  store i32 0, ptr %6, align 4
  store i32 1, ptr %13, align 4
  br label %32

32:                                               ; preds = %20, %19
  call void @llvm.lifetime.end.p0(i64 8, ptr %12) #12
  %33 = load i32, ptr %6, align 4
  ret i32 %33
}