; Function Attrs: nounwind uwtable
define internal noundef i32 @mark_uninteresting(ptr readnone captures(none) %0, ptr readnone captures(none) %1, ptr noundef %2, i32 %3, ptr readnone captures(none) %4) #0 {
  %6 = load ptr, ptr @the_repository, align 8, !tbaa !45
  %7 = tail call ptr @lookup_commit_reference_gently(ptr noundef %6, ptr noundef %2, i32 noundef 1) #15
  %.not = icmp eq ptr %7, null
  br i1 %.not, label %11, label %8

8:                                                ; preds = %5
  %9 = load i32, ptr %7, align 8
  %10 = or i32 %9, 32
  store i32 %10, ptr %7, align 8
  tail call void @mark_parents_uninteresting(ptr noundef null, ptr noundef nonnull %7) #15
  br label %11

11:                                               ; preds = %5, %8
  ret i32 0
}